; ModuleID = '56/461.c'
source_filename = "56/461.c"
target datalayout = "e-m:e-p270:32:32-p271:32:32-p272:64:64-i64:64-f80:128-n8:16:32:64-S128"
target triple = "x86_64-pc-linux-gnu"

@.str = private unnamed_addr constant [4 x i8] c"%ld\00", align 1
@.str.1 = private unnamed_addr constant [11 x i8] c"%d%d%d%d%d\00", align 1
@.str.2 = private unnamed_addr constant [9 x i8] c"%d%d%d%d\00", align 1
@.str.3 = private unnamed_addr constant [7 x i8] c"%d%d%d\00", align 1
@.str.4 = private unnamed_addr constant [5 x i8] c"%d%d\00", align 1
@.str.5 = private unnamed_addr constant [3 x i8] c"%d\00", align 1

; Function Attrs: noinline nounwind uwtable
define dso_local i32 @main() #0 {
  %1 = alloca i32, align 4
  %2 = alloca i64, align 8
  %3 = alloca i32, align 4
  %4 = alloca i32, align 4
  %5 = alloca i32, align 4
  %6 = alloca i32, align 4
  %7 = alloca i32, align 4
  store i32 0, i32* %1, align 4
  %8 = call i32 (i8*, ...) @__isoc99_scanf(i8* getelementptr inbounds ([4 x i8], [4 x i8]* @.str, i64 0, i64 0), i64* %2)
  %9 = load i64, i64* %2, align 8
  %10 = sdiv i64 %9, 10000
  %11 = trunc i64 %10 to i32
  store i32 %11, i32* %3, align 4
  %12 = load i64, i64* %2, align 8
  %13 = load i32, i32* %3, align 4
  %14 = mul nsw i32 %13, 10000
  %15 = sext i32 %14 to i64
  %16 = sub nsw i64 %12, %15
  %17 = trunc i64 %16 to i32
  %18 = sdiv i32 %17, 1000
  store i32 %18, i32* %4, align 4
  %19 = load i64, i64* %2, align 8
  %20 = load i32, i32* %3, align 4
  %21 = mul nsw i32 %20, 10000
  %22 = sext i32 %21 to i64
  %23 = sub nsw i64 %19, %22
  %24 = load i32, i32* %4, align 4
  %25 = mul nsw i32 %24, 1000
  %26 = sext i32 %25 to i64
  %27 = sub nsw i64 %23, %26
  %28 = trunc i64 %27 to i32
  %29 = sdiv i32 %28, 100
  store i32 %29, i32* %5, align 4
  %30 = load i64, i64* %2, align 8
  %31 = load i32, i32* %3, align 4
  %32 = mul nsw i32 %31, 10000
  %33 = sext i32 %32 to i64
  %34 = sub nsw i64 %30, %33
  %35 = load i32, i32* %4, align 4
  %36 = mul nsw i32 %35, 1000
  %37 = sext i32 %36 to i64
  %38 = sub nsw i64 %34, %37
  %39 = load i32, i32* %5, align 4
  %40 = mul nsw i32 %39, 100
  %41 = sext i32 %40 to i64
  %42 = sub nsw i64 %38, %41
  %43 = trunc i64 %42 to i32
  %44 = sdiv i32 %43, 10
  store i32 %44, i32* %6, align 4
  %45 = load i64, i64* %2, align 8
  %46 = load i32, i32* %3, align 4
  %47 = mul nsw i32 %46, 10000
  %48 = sext i32 %47 to i64
  %49 = sub nsw i64 %45, %48
  %50 = load i32, i32* %4, align 4
  %51 = mul nsw i32 %50, 1000
  %52 = sext i32 %51 to i64
  %53 = sub nsw i64 %49, %52
  %54 = load i32, i32* %5, align 4
  %55 = mul nsw i32 %54, 100
  %56 = sext i32 %55 to i64
  %57 = sub nsw i64 %53, %56
  %58 = load i32, i32* %6, align 4
  %59 = mul nsw i32 %58, 10
  %60 = sext i32 %59 to i64
  %61 = sub nsw i64 %57, %60
  %62 = trunc i64 %61 to i32
  store i32 %62, i32* %7, align 4
  %63 = load i64, i64* %2, align 8
  %64 = icmp sgt i64 %63, 9999
  br i1 %64, label %65, label %72

65:                                               ; preds = %0
  %66 = load i32, i32* %7, align 4
  %67 = load i32, i32* %6, align 4
  %68 = load i32, i32* %5, align 4
  %69 = load i32, i32* %4, align 4
  %70 = load i32, i32* %3, align 4
  %71 = call i32 (i8*, ...) @printf(i8* getelementptr inbounds ([11 x i8], [11 x i8]* @.str.1, i64 0, i64 0), i32 %66, i32 %67, i32 %68, i32 %69, i32 %70)
  br label %102

72:                                               ; preds = %0
  %73 = load i64, i64* %2, align 8
  %74 = icmp sgt i64 %73, 999
  br i1 %74, label %75, label %81

75:                                               ; preds = %72
  %76 = load i32, i32* %7, align 4
  %77 = load i32, i32* %6, align 4
  %78 = load i32, i32* %5, align 4
  %79 = load i32, i32* %4, align 4
  %80 = call i32 (i8*, ...) @printf(i8* getelementptr inbounds ([9 x i8], [9 x i8]* @.str.2, i64 0, i64 0), i32 %76, i32 %77, i32 %78, i32 %79)
  br label %101

81:                                               ; preds = %72
  %82 = load i64, i64* %2, align 8
  %83 = icmp sgt i64 %82, 99
  br i1 %83, label %84, label %89

84:                                               ; preds = %81
  %85 = load i32, i32* %7, align 4
  %86 = load i32, i32* %6, align 4
  %87 = load i32, i32* %5, align 4
  %88 = call i32 (i8*, ...) @printf(i8* getelementptr inbounds ([7 x i8], [7 x i8]* @.str.3, i64 0, i64 0), i32 %85, i32 %86, i32 %87)
  br label %100

89:                                               ; preds = %81
  %90 = load i64, i64* %2, align 8
  %91 = icmp sgt i64 %90, 9
  br i1 %91, label %92, label %96

92:                                               ; preds = %89
  %93 = load i32, i32* %7, align 4
  %94 = load i32, i32* %6, align 4
  %95 = call i32 (i8*, ...) @printf(i8* getelementptr inbounds ([5 x i8], [5 x i8]* @.str.4, i64 0, i64 0), i32 %93, i32 %94)
  br label %99

96:                                               ; preds = %89
  %97 = load i32, i32* %7, align 4
  %98 = call i32 (i8*, ...) @printf(i8* getelementptr inbounds ([3 x i8], [3 x i8]* @.str.5, i64 0, i64 0), i32 %97)
  br label %99

99:                                               ; preds = %96, %92
  br label %100

100:                                              ; preds = %99, %84
  br label %101

101:                                              ; preds = %100, %75
  br label %102

102:                                              ; preds = %101, %65
  ret i32 0
}

declare dso_local i32 @__isoc99_scanf(i8*, ...) #1

declare dso_local i32 @printf(i8*, ...) #1


!llvm.module.flags = !{!0}
!llvm.ident = !{!1}

!0 = !{i32 1, !"wchar_size", i32 4}
!1 = !{!"clang version 10.0.0-4ubuntu1 "}
